target datalayout = "e-m:e-p270:32:32-p271:32:32-p272:64:64-i64:64-i128:128-f80:128-n8:16:32:64-S128"
target triple = "x86_64-pc-linux-gnu"

%struct.RepeatInfo = type { i8, i32, i32, i32, i32, i32, i32, [2 x i32], i32, i32, i32, i32, i32 }
%struct.RepeatRingControl = type { i64, i16, i16 }
%struct.unaligned = type { i16 }
%struct.unaligned.0 = type { i64 }
%struct.unaligned.3 = type { i32 }

; Function Attrs: alwaysinline nounwind uwtable
define internal zeroext i16 @unaligned_load_u16(ptr noundef %0) #2 {
  %2 = alloca ptr, align 8
  %3 = alloca ptr, align 8
  store ptr %0, ptr %2, align 8
  call void @llvm.lifetime.start.p0(i64 8, ptr %3) #7
  %4 = load ptr, ptr %2, align 8
  store ptr %4, ptr %3, align 8
  %5 = load ptr, ptr %3, align 8
  %6 = getelementptr inbounds nuw %struct.unaligned, ptr %5, i32 0, i32 0
  %7 = load i16, ptr %6, align 1
  call void @llvm.lifetime.end.p0(i64 8, ptr %3) #7
  ret i16 %7
}

; Function Attrs: alwaysinline nounwind uwtable
define internal i32 @unaligned_load_u32(ptr noundef %0) #2 {
  %2 = alloca ptr, align 8
  %3 = alloca ptr, align 8
  store ptr %0, ptr %2, align 8
  call void @llvm.lifetime.start.p0(i64 8, ptr %3) #7
  %4 = load ptr, ptr %2, align 8
  store ptr %4, ptr %3, align 8
  %5 = load ptr, ptr %3, align 8
  %6 = getelementptr inbounds nuw %struct.unaligned.3, ptr %5, i32 0, i32 0
  %7 = load i32, ptr %6, align 1
  call void @llvm.lifetime.end.p0(i64 8, ptr %3) #7
  ret i32 %7
}

; Function Attrs: alwaysinline nounwind uwtable
define internal i64 @unaligned_load_u64a(ptr noundef %0) #2 {
  %2 = alloca ptr, align 8
  %3 = alloca ptr, align 8
  store ptr %0, ptr %2, align 8
  call void @llvm.lifetime.start.p0(i64 8, ptr %3) #7
  %4 = load ptr, ptr %2, align 8
  store ptr %4, ptr %3, align 8
  %5 = load ptr, ptr %3, align 8
  %6 = getelementptr inbounds nuw %struct.unaligned.0, ptr %5, i32 0, i32 0
  %7 = load i64, ptr %6, align 1
  call void @llvm.lifetime.end.p0(i64 8, ptr %3) #7
  ret i64 %7
}

; Function Attrs: alwaysinline nounwind uwtable
define internal ptr @getImplTable(ptr noundef %0) #2 {
  %2 = alloca ptr, align 8
  %3 = alloca ptr, align 8
  store ptr %0, ptr %2, align 8
  call void @llvm.lifetime.start.p0(i64 8, ptr %3) #7
  %4 = load ptr, ptr %2, align 8
  %5 = getelementptr inbounds nuw i8, ptr %4, i64 56
  %6 = ptrtoint ptr %5 to i64
  %7 = add i64 %6, 7
  %8 = and i64 %7, -8
  %9 = inttoptr i64 %8 to ptr
  store ptr %9, ptr %3, align 8
  %10 = load ptr, ptr %3, align 8
  call void @llvm.lifetime.end.p0(i64 8, ptr %3) #7
  ret ptr %10
}

; Function Attrs: alwaysinline nounwind uwtable
define internal i64 @partial_load_u64a(ptr noundef %0, i32 noundef %1) #2 {
  %3 = alloca i64, align 8
  %4 = alloca ptr, align 8
  %5 = alloca i32, align 4
  %6 = alloca i64, align 8
  %7 = alloca i32, align 4
  store ptr %0, ptr %4, align 8
  store i32 %1, ptr %5, align 4
  call void @llvm.lifetime.start.p0(i64 8, ptr %6) #7
  %8 = load i32, ptr %5, align 4
  switch i32 %8, label %83 [
    i32 8, label %9
    i32 7, label %13
    i32 6, label %32
    i32 5, label %44
    i32 4, label %56
    i32 3, label %61
    i32 2, label %73
    i32 1, label %78
    i32 0, label %83
  ]

9:                                                ; preds = %2
  %10 = load ptr, ptr %4, align 8
  %11 = call i64 @unaligned_load_u64a(ptr noundef %10)
  store i64 %11, ptr %6, align 8
  %12 = load i64, ptr %6, align 8
  store i64 %12, ptr %3, align 8
  store i32 1, ptr %7, align 4
  br label %84

13:                                               ; preds = %2
  %14 = load ptr, ptr %4, align 8
  %15 = call i32 @unaligned_load_u32(ptr noundef %14)
  %16 = zext i32 %15 to i64
  store i64 %16, ptr %6, align 8
  %17 = load ptr, ptr %4, align 8
  %18 = getelementptr inbounds i8, ptr %17, i64 4
  %19 = call zeroext i16 @unaligned_load_u16(ptr noundef %18)
  %20 = zext i16 %19 to i64
  %21 = shl i64 %20, 32
  %22 = load i64, ptr %6, align 8
  %23 = or i64 %22, %21
  store i64 %23, ptr %6, align 8
  %24 = load ptr, ptr %4, align 8
  %25 = getelementptr inbounds i8, ptr %24, i64 6
  %26 = load i8, ptr %25, align 1
  %27 = zext i8 %26 to i64
  %28 = shl i64 %27, 48
  %29 = load i64, ptr %6, align 8
  %30 = or i64 %29, %28
  store i64 %30, ptr %6, align 8
  %31 = load i64, ptr %6, align 8
  store i64 %31, ptr %3, align 8
  store i32 1, ptr %7, align 4
  br label %84

32:                                               ; preds = %2
  %33 = load ptr, ptr %4, align 8
  %34 = call i32 @unaligned_load_u32(ptr noundef %33)
  %35 = zext i32 %34 to i64
  store i64 %35, ptr %6, align 8
  %36 = load ptr, ptr %4, align 8
  %37 = getelementptr inbounds i8, ptr %36, i64 4
  %38 = call zeroext i16 @unaligned_load_u16(ptr noundef %37)
  %39 = zext i16 %38 to i64
  %40 = shl i64 %39, 32
  %41 = load i64, ptr %6, align 8
  %42 = or i64 %41, %40
  store i64 %42, ptr %6, align 8
  %43 = load i64, ptr %6, align 8
  store i64 %43, ptr %3, align 8
  store i32 1, ptr %7, align 4
  br label %84

44:                                               ; preds = %2
  %45 = load ptr, ptr %4, align 8
  %46 = call i32 @unaligned_load_u32(ptr noundef %45)
  %47 = zext i32 %46 to i64
  store i64 %47, ptr %6, align 8
  %48 = load ptr, ptr %4, align 8
  %49 = getelementptr inbounds i8, ptr %48, i64 4
  %50 = load i8, ptr %49, align 1
  %51 = zext i8 %50 to i64
  %52 = shl i64 %51, 32
  %53 = load i64, ptr %6, align 8
  %54 = or i64 %53, %52
  store i64 %54, ptr %6, align 8
  %55 = load i64, ptr %6, align 8
  store i64 %55, ptr %3, align 8
  store i32 1, ptr %7, align 4
  br label %84

56:                                               ; preds = %2
  %57 = load ptr, ptr %4, align 8
  %58 = call i32 @unaligned_load_u32(ptr noundef %57)
  %59 = zext i32 %58 to i64
  store i64 %59, ptr %6, align 8
  %60 = load i64, ptr %6, align 8
  store i64 %60, ptr %3, align 8
  store i32 1, ptr %7, align 4
  br label %84

61:                                               ; preds = %2
  %62 = load ptr, ptr %4, align 8
  %63 = call zeroext i16 @unaligned_load_u16(ptr noundef %62)
  %64 = zext i16 %63 to i64
  store i64 %64, ptr %6, align 8
  %65 = load ptr, ptr %4, align 8
  %66 = getelementptr inbounds i8, ptr %65, i64 2
  %67 = load i8, ptr %66, align 1
  %68 = zext i8 %67 to i64
  %69 = shl i64 %68, 16
  %70 = load i64, ptr %6, align 8
  %71 = or i64 %70, %69
  store i64 %71, ptr %6, align 8
  %72 = load i64, ptr %6, align 8
  store i64 %72, ptr %3, align 8
  store i32 1, ptr %7, align 4
  br label %84

73:                                               ; preds = %2
  %74 = load ptr, ptr %4, align 8
  %75 = call zeroext i16 @unaligned_load_u16(ptr noundef %74)
  %76 = zext i16 %75 to i64
  store i64 %76, ptr %6, align 8
  %77 = load i64, ptr %6, align 8
  store i64 %77, ptr %3, align 8
  store i32 1, ptr %7, align 4
  br label %84

78:                                               ; preds = %2
  %79 = load ptr, ptr %4, align 8
  %80 = load i8, ptr %79, align 1
  %81 = zext i8 %80 to i64
  store i64 %81, ptr %6, align 8
  %82 = load i64, ptr %6, align 8
  store i64 %82, ptr %3, align 8
  store i32 1, ptr %7, align 4
  br label %84

83:                                               ; preds = %2, %2
  store i64 0, ptr %3, align 8
  store i32 1, ptr %7, align 4
  br label %84

84:                                               ; preds = %83, %78, %73, %61, %56, %44, %32, %13, %9
  call void @llvm.lifetime.end.p0(i64 8, ptr %6) #7
  %85 = load i64, ptr %3, align 8
  ret i64 %85
}

; Function Attrs: nounwind uwtable
define internal i32 @ringOccupancy(ptr noundef %0, i32 noundef %1) #0 {
  %3 = alloca i32, align 4
  %4 = alloca ptr, align 8
  %5 = alloca i32, align 4
  store ptr %0, ptr %4, align 8
  store i32 %1, ptr %5, align 4
  %6 = load ptr, ptr %4, align 8
  %7 = getelementptr inbounds nuw %struct.RepeatRingControl, ptr %6, i32 0, i32 2
  %8 = load i16, ptr %7, align 2
  %9 = zext i16 %8 to i32
  %10 = load ptr, ptr %4, align 8
  %11 = getelementptr inbounds nuw %struct.RepeatRingControl, ptr %10, i32 0, i32 1
  %12 = load i16, ptr %11, align 8
  %13 = zext i16 %12 to i32
  %14 = icmp sgt i32 %9, %13
  br i1 %14, label %15, label %25

15:                                               ; preds = %2
  %16 = load ptr, ptr %4, align 8
  %17 = getelementptr inbounds nuw %struct.RepeatRingControl, ptr %16, i32 0, i32 2
  %18 = load i16, ptr %17, align 2
  %19 = zext i16 %18 to i32
  %20 = load ptr, ptr %4, align 8
  %21 = getelementptr inbounds nuw %struct.RepeatRingControl, ptr %20, i32 0, i32 1
  %22 = load i16, ptr %21, align 8
  %23 = zext i16 %22 to i32
  %24 = sub nsw i32 %19, %23
  store i32 %24, ptr %3, align 4
  br label %37

25:                                               ; preds = %2
  %26 = load i32, ptr %5, align 4
  %27 = load ptr, ptr %4, align 8
  %28 = getelementptr inbounds nuw %struct.RepeatRingControl, ptr %27, i32 0, i32 1
  %29 = load i16, ptr %28, align 8
  %30 = zext i16 %29 to i32
  %31 = load ptr, ptr %4, align 8
  %32 = getelementptr inbounds nuw %struct.RepeatRingControl, ptr %31, i32 0, i32 2
  %33 = load i16, ptr %32, align 2
  %34 = zext i16 %33 to i32
  %35 = sub nsw i32 %30, %34
  %36 = sub i32 %26, %35
  store i32 %36, ptr %3, align 4
  br label %37

37:                                               ; preds = %25, %15
  %38 = load i32, ptr %3, align 4
  ret i32 %38
}

; Function Attrs: nounwind uwtable
define internal i64 @sparseLastTop(ptr noundef %0, ptr noundef %1, ptr noundef %2) #0 {
  %4 = alloca i64, align 8
  %5 = alloca ptr, align 8
  %6 = alloca ptr, align 8
  %7 = alloca ptr, align 8
  %8 = alloca i32, align 4
  %9 = alloca i32, align 4
  %10 = alloca i32, align 4
  %11 = alloca i32, align 4
  %12 = alloca i32, align 4
  %13 = alloca ptr, align 8
  %14 = alloca i64, align 8
  %15 = alloca ptr, align 8
  %16 = alloca i32, align 4
  %17 = alloca i32, align 4
  store ptr %0, ptr %5, align 8
  store ptr %1, ptr %6, align 8
  store ptr %2, ptr %7, align 8
  br label %18

18:                                               ; preds = %3
  br label %19

19:                                               ; preds = %18
  call void @llvm.lifetime.start.p0(i64 4, ptr %8) #7
  %20 = load ptr, ptr %5, align 8
  %21 = getelementptr inbounds nuw %struct.RepeatInfo, ptr %20, i32 0, i32 9
  %22 = load i32, ptr %21, align 4
  store i32 %22, ptr %8, align 4
  call void @llvm.lifetime.start.p0(i64 4, ptr %9) #7
  %23 = load ptr, ptr %5, align 8
  %24 = getelementptr inbounds nuw %struct.RepeatInfo, ptr %23, i32 0, i32 8
  %25 = load i32, ptr %24, align 4
  store i32 %25, ptr %9, align 4
  call void @llvm.lifetime.start.p0(i64 4, ptr %10) #7
  %26 = load ptr, ptr %5, align 8
  %27 = getelementptr inbounds nuw %struct.RepeatInfo, ptr %26, i32 0, i32 10
  %28 = load i32, ptr %27, align 4
  store i32 %28, ptr %10, align 4
  call void @llvm.lifetime.start.p0(i64 4, ptr %11) #7
  %29 = load ptr, ptr %6, align 8
  %30 = load i32, ptr %9, align 4
  %31 = call i32 @ringOccupancy(ptr noundef %29, i32 noundef %30)
  store i32 %31, ptr %11, align 4
  call void @llvm.lifetime.start.p0(i64 4, ptr %12) #7
  %32 = load ptr, ptr %6, align 8
  %33 = getelementptr inbounds nuw %struct.RepeatRingControl, ptr %32, i32 0, i32 1
  %34 = load i16, ptr %33, align 8
  %35 = zext i16 %34 to i32
  %36 = load i32, ptr %11, align 4
  %37 = add i32 %35, %36
  %38 = sub i32 %37, 1
  store i32 %38, ptr %12, align 4
  %39 = load i32, ptr %12, align 4
  %40 = load i32, ptr %9, align 4
  %41 = icmp uge i32 %39, %40
  br i1 %41, label %42, label %46

42:                                               ; preds = %19
  %43 = load i32, ptr %9, align 4
  %44 = load i32, ptr %12, align 4
  %45 = sub i32 %44, %43
  store i32 %45, ptr %12, align 4
  br label %46

46:                                               ; preds = %42, %19
  br label %47

47:                                               ; preds = %46
  br label %48

48:                                               ; preds = %47
  br label %49

49:                                               ; preds = %48
  call void @llvm.lifetime.start.p0(i64 8, ptr %13) #7
  %50 = load ptr, ptr %7, align 8
  %51 = load ptr, ptr %5, align 8
  %52 = getelementptr inbounds nuw %struct.RepeatInfo, ptr %51, i32 0, i32 12
  %53 = load i32, ptr %52, align 4
  %54 = zext i32 %53 to i64
  %55 = getelementptr inbounds nuw i8, ptr %50, i64 %54
  store ptr %55, ptr %13, align 8
  call void @llvm.lifetime.start.p0(i64 8, ptr %14) #7
  %56 = load ptr, ptr %13, align 8
  %57 = load i32, ptr %10, align 4
  %58 = load i32, ptr %12, align 4
  %59 = mul i32 %57, %58
  %60 = zext i32 %59 to i64
  %61 = getelementptr inbounds nuw i8, ptr %56, i64 %60
  %62 = load i32, ptr %10, align 4
  %63 = call i64 @partial_load_u64a(ptr noundef %61, i32 noundef %62)
  store i64 %63, ptr %14, align 8
  br label %64

64:                                               ; preds = %49
  br label %65

65:                                               ; preds = %64
  br label %66

66:                                               ; preds = %65
  call void @llvm.lifetime.start.p0(i64 8, ptr %15) #7
  %67 = load ptr, ptr %5, align 8
  %68 = call ptr @getImplTable(ptr noundef %67)
  store ptr %68, ptr %15, align 8
  call void @llvm.lifetime.start.p0(i64 4, ptr %16) #7
  %69 = load i32, ptr %8, align 4
  %70 = sub i32 %69, 1
  store i32 %70, ptr %16, align 4
  br label %71

71:                                               ; preds = %100, %66
  %72 = load i32, ptr %16, align 4
  %73 = icmp sge i32 %72, 0
  br i1 %73, label %75, label %74

74:                                               ; preds = %71
  store i32 8, ptr %17, align 4
  br label %103

75:                                               ; preds = %71
  %76 = load i64, ptr %14, align 8
  %77 = load ptr, ptr %15, align 8
  %78 = load i32, ptr %16, align 4
  %79 = sext i32 %78 to i64
  %80 = getelementptr inbounds i64, ptr %77, i64 %79
  %81 = load i64, ptr %80, align 8
  %82 = icmp uge i64 %76, %81
  br i1 %82, label %83, label %99

83:                                               ; preds = %75
  br label %84

84:                                               ; preds = %83
  br label %85

85:                                               ; preds = %84
  br label %86

86:                                               ; preds = %85
  %87 = load ptr, ptr %6, align 8
  %88 = getelementptr inbounds nuw %struct.RepeatRingControl, ptr %87, i32 0, i32 0
  %89 = load i64, ptr %88, align 8
  %90 = load i32, ptr %16, align 4
  %91 = sext i32 %90 to i64
  %92 = add i64 %89, %91
  %93 = load i32, ptr %11, align 4
  %94 = sub i32 %93, 1
  %95 = load i32, ptr %8, align 4
  %96 = mul i32 %94, %95
  %97 = zext i32 %96 to i64
  %98 = add i64 %92, %97
  store i64 %98, ptr %4, align 8
  store i32 1, ptr %17, align 4
  br label %103

99:                                               ; preds = %75
  br label %100

100:                                              ; preds = %99
  %101 = load i32, ptr %16, align 4
  %102 = add nsw i32 %101, -1
  store i32 %102, ptr %16, align 4
  br label %71

103:                                              ; preds = %86, %74
  call void @llvm.lifetime.end.p0(i64 4, ptr %16) #7
  %104 = load i32, ptr %17, align 4
  switch i32 %104, label %106 [
    i32 8, label %105
  ]

105:                                              ; preds = %103
  store i64 0, ptr %4, align 8
  store i32 1, ptr %17, align 4
  br label %106

106:                                              ; preds = %105, %103
  call void @llvm.lifetime.end.p0(i64 8, ptr %15) #7
  call void @llvm.lifetime.end.p0(i64 8, ptr %14) #7
  call void @llvm.lifetime.end.p0(i64 8, ptr %13) #7
  call void @llvm.lifetime.end.p0(i64 4, ptr %12) #7
  call void @llvm.lifetime.end.p0(i64 4, ptr %11) #7
  call void @llvm.lifetime.end.p0(i64 4, ptr %10) #7
  call void @llvm.lifetime.end.p0(i64 4, ptr %9) #7
  call void @llvm.lifetime.end.p0(i64 4, ptr %8) #7
  %107 = load i64, ptr %4, align 8
  ret i64 %107
}