; Function Attrs: nofree norecurse nosync nounwind memory(read, inaccessiblemem: none) uwtable
define internal fastcc i64 @sparseLastTop(ptr noundef %0, ptr noundef readonly captures(none) %1, ptr noundef readonly captures(none) %2) unnamed_addr #6 {
  %4 = getelementptr inbounds nuw i8, ptr %0, i64 40
  %5 = load i32, ptr %4, align 4
  %6 = getelementptr inbounds nuw i8, ptr %0, i64 36
  %7 = load i32, ptr %6, align 4
  %8 = getelementptr inbounds nuw i8, ptr %0, i64 44
  %9 = load i32, ptr %8, align 4
  %10 = getelementptr i8, ptr %1, i64 8
  %.val = load i16, ptr %10, align 8
  %11 = getelementptr i8, ptr %1, i64 10
  %.val37 = load i16, ptr %11, align 2
  %12 = zext i16 %.val37 to i32
  %13 = zext i16 %.val to i32
  %14 = icmp ugt i16 %.val37, %.val
  %15 = select i1 %14, i32 0, i32 %7
  %16 = add i32 %15, -1
  %17 = add i32 %16, %12
  %.not = icmp ult i32 %17, %7
  %18 = select i1 %.not, i32 0, i32 %7
  %spec.select = sub nuw i32 %17, %18
  %19 = getelementptr inbounds nuw i8, ptr %0, i64 52
  %20 = load i32, ptr %19, align 4
  %21 = zext i32 %20 to i64
  %22 = getelementptr inbounds nuw i8, ptr %2, i64 %21
  %23 = mul i32 %spec.select, %9
  %24 = zext i32 %23 to i64
  %25 = getelementptr inbounds nuw i8, ptr %22, i64 %24
  switch i32 %9, label %partial_load_u64a.exit [
    i32 8, label %26
    i32 7, label %28
    i32 6, label %41
    i32 5, label %49
    i32 4, label %57
    i32 3, label %60
    i32 2, label %68
    i32 1, label %71
  ]

26:                                               ; preds = %3
  %27 = load i64, ptr %25, align 1
  br label %partial_load_u64a.exit

28:                                               ; preds = %3
  %29 = load i32, ptr %25, align 1
  %30 = zext i32 %29 to i64
  %31 = getelementptr inbounds nuw i8, ptr %25, i64 4
  %32 = load i16, ptr %31, align 1
  %33 = zext i16 %32 to i64
  %34 = shl nuw nsw i64 %33, 32
  %35 = or disjoint i64 %34, %30
  %36 = getelementptr inbounds nuw i8, ptr %25, i64 6
  %37 = load i8, ptr %36, align 1
  %38 = zext i8 %37 to i64
  %39 = shl nuw nsw i64 %38, 48
  %40 = or disjoint i64 %35, %39
  br label %partial_load_u64a.exit

41:                                               ; preds = %3
  %42 = load i32, ptr %25, align 1
  %43 = zext i32 %42 to i64
  %44 = getelementptr inbounds nuw i8, ptr %25, i64 4
  %45 = load i16, ptr %44, align 1
  %46 = zext i16 %45 to i64
  %47 = shl nuw nsw i64 %46, 32
  %48 = or disjoint i64 %47, %43
  br label %partial_load_u64a.exit

49:                                               ; preds = %3
  %50 = load i32, ptr %25, align 1
  %51 = zext i32 %50 to i64
  %52 = getelementptr inbounds nuw i8, ptr %25, i64 4
  %53 = load i8, ptr %52, align 1
  %54 = zext i8 %53 to i64
  %55 = shl nuw nsw i64 %54, 32
  %56 = or disjoint i64 %55, %51
  br label %partial_load_u64a.exit

57:                                               ; preds = %3
  %58 = load i32, ptr %25, align 1
  %59 = zext i32 %58 to i64
  br label %partial_load_u64a.exit

60:                                               ; preds = %3
  %61 = load i16, ptr %25, align 1
  %62 = zext i16 %61 to i64
  %63 = getelementptr inbounds nuw i8, ptr %25, i64 2
  %64 = load i8, ptr %63, align 1
  %65 = zext i8 %64 to i64
  %66 = shl nuw nsw i64 %65, 16
  %67 = or disjoint i64 %66, %62
  br label %partial_load_u64a.exit

68:                                               ; preds = %3
  %69 = load i16, ptr %25, align 1
  %70 = zext i16 %69 to i64
  br label %partial_load_u64a.exit

71:                                               ; preds = %3
  %72 = load i8, ptr %25, align 1
  %73 = zext i8 %72 to i64
  br label %partial_load_u64a.exit

partial_load_u64a.exit:                           ; preds = %3, %26, %28, %41, %49, %57, %60, %68, %71
  %.0.i = phi i64 [ %73, %71 ], [ %70, %68 ], [ %67, %60 ], [ %59, %57 ], [ %56, %49 ], [ %48, %41 ], [ %40, %28 ], [ %27, %26 ], [ 0, %3 ]
  %74 = getelementptr inbounds nuw i8, ptr %0, i64 56
  %75 = ptrtoint ptr %74 to i64
  %76 = add i64 %75, 7
  %77 = and i64 %76, -8
  %78 = inttoptr i64 %77 to ptr
  %79 = zext i32 %5 to i64
  br label %80

80:                                               ; preds = %82, %partial_load_u64a.exit
  %indvars.iv = phi i64 [ %indvars.iv.next, %82 ], [ %79, %partial_load_u64a.exit ]
  %indvars.iv.next = add nsw i64 %indvars.iv, -1
  %81 = and i64 %indvars.iv.next, 2147483648
  %.not40 = icmp eq i64 %81, 0
  br i1 %.not40, label %82, label %.loopexit

82:                                               ; preds = %80
  %83 = and i64 %indvars.iv.next, 2147483647
  %84 = getelementptr inbounds nuw i64, ptr %78, i64 %83
  %85 = load i64, ptr %84, align 8
  %.not35 = icmp ult i64 %.0.i, %85
  br i1 %.not35, label %80, label %86

86:                                               ; preds = %82
  %87 = load i64, ptr %1, align 8
  %88 = xor i32 %13, -1
  %.0.i38 = add i32 %15, %88
  %89 = add i32 %.0.i38, %12
  %90 = mul i32 %89, %5
  %91 = zext i32 %90 to i64
  %92 = add nuw nsw i64 %83, %91
  %93 = add i64 %92, %87
  br label %.loopexit

.loopexit:                                        ; preds = %80, %86
  %spec.select36 = phi i64 [ %93, %86 ], [ 0, %80 ]
  ret i64 %spec.select36
}